target datalayout = "e-m:e-p270:32:32-p271:32:32-p272:64:64-i64:64-i128:128-f80:128-n8:16:32:64-S128"
target triple = "x86_64-pc-linux-gnu"

%"class.std::__cxx11::basic_string" = type { %"struct.std::__cxx11::basic_string<char>::_Alloc_hider", i64, %union.anon }
%"struct.std::__cxx11::basic_string<char>::_Alloc_hider" = type { ptr }
%union.anon = type { i64, [8 x i8] }
%class.colvar_grid_scalar = type { %class.colvar_grid.base.118, ptr }
%class.colvar_grid.base.118 = type <{ %class.colvarparse, i64, %"class.std::vector.24", %"class.std::vector.24", i64, i64, %"class.std::vector.45", %"class.std::vector.29", %"class.std::vector.34", %"class.std::vector.39", %"class.std::vector.40", %"class.std::vector.40", %"class.std::vector.39", %"class.std::vector.39", %"class.std::vector.39", %"class.std::vector.45", i8, i8 }>
%class.colvarparse = type { %class.colvarparams, %"class.std::__cxx11::basic_string", %"class.std::__cxx11::basic_string", %"class.std::__cxx11::list", %"class.std::map.14", %"class.std::__cxx11::list.19", %"class.std::__cxx11::list.19", %"class.std::__cxx11::basic_string" }
%class.colvarparams = type { ptr, %"class.std::map", %"class.std::map.3" }
%"class.std::map" = type { %"class.std::_Rb_tree" }
%"class.std::_Rb_tree" = type { %"struct.std::_Rb_tree<std::__cxx11::basic_string<char>, std::pair<const std::__cxx11::basic_string<char>, const void *>, std::_Select1st<std::pair<const std::__cxx11::basic_string<char>, const void *>>, std::less<std::__cxx11::basic_string<char>>>::_Rb_tree_impl" }
%"struct.std::_Rb_tree<std::__cxx11::basic_string<char>, std::pair<const std::__cxx11::basic_string<char>, const void *>, std::_Select1st<std::pair<const std::__cxx11::basic_string<char>, const void *>>, std::less<std::__cxx11::basic_string<char>>>::_Rb_tree_impl" = type { [8 x i8], %"struct.std::_Rb_tree_header" }
%"struct.std::_Rb_tree_header" = type { %"struct.std::_Rb_tree_node_base", i64 }
%"struct.std::_Rb_tree_node_base" = type { i32, ptr, ptr, ptr }
%"class.std::map.3" = type { %"class.std::_Rb_tree.4" }
%"class.std::_Rb_tree.4" = type { %"struct.std::_Rb_tree<std::__cxx11::basic_string<char>, std::pair<const std::__cxx11::basic_string<char>, const colvarvalue *>, std::_Select1st<std::pair<const std::__cxx11::basic_string<char>, const colvarvalue *>>, std::less<std::__cxx11::basic_string<char>>>::_Rb_tree_impl" }
%"struct.std::_Rb_tree<std::__cxx11::basic_string<char>, std::pair<const std::__cxx11::basic_string<char>, const colvarvalue *>, std::_Select1st<std::pair<const std::__cxx11::basic_string<char>, const colvarvalue *>>, std::less<std::__cxx11::basic_string<char>>>::_Rb_tree_impl" = type { [8 x i8], %"struct.std::_Rb_tree_header" }
%"class.std::__cxx11::list" = type { %"class.std::__cxx11::_List_base" }
%"class.std::__cxx11::_List_base" = type { %"struct.std::__cxx11::_List_base<std::__cxx11::basic_string<char>, std::allocator<std::__cxx11::basic_string<char>>>::_List_impl" }
%"struct.std::__cxx11::_List_base<std::__cxx11::basic_string<char>, std::allocator<std::__cxx11::basic_string<char>>>::_List_impl" = type { %"struct.std::__detail::_List_node_header" }
%"struct.std::__detail::_List_node_header" = type { %"struct.std::__detail::_List_node_base", i64 }
%"struct.std::__detail::_List_node_base" = type { ptr, ptr }
%"class.std::map.14" = type { %"class.std::_Rb_tree.15" }
%"class.std::_Rb_tree.15" = type { %"struct.std::_Rb_tree<std::__cxx11::basic_string<char>, std::pair<const std::__cxx11::basic_string<char>, colvarparse::key_set_mode>, std::_Select1st<std::pair<const std::__cxx11::basic_string<char>, colvarparse::key_set_mode>>, std::less<std::__cxx11::basic_string<char>>>::_Rb_tree_impl" }
%"struct.std::_Rb_tree<std::__cxx11::basic_string<char>, std::pair<const std::__cxx11::basic_string<char>, colvarparse::key_set_mode>, std::_Select1st<std::pair<const std::__cxx11::basic_string<char>, colvarparse::key_set_mode>>, std::less<std::__cxx11::basic_string<char>>>::_Rb_tree_impl" = type { [8 x i8], %"struct.std::_Rb_tree_header" }
%"class.std::__cxx11::list.19" = type { %"class.std::__cxx11::_List_base.20" }
%"class.std::__cxx11::_List_base.20" = type { %"struct.std::__cxx11::_List_base<unsigned long, std::allocator<unsigned long>>::_List_impl" }
%"struct.std::__cxx11::_List_base<unsigned long, std::allocator<unsigned long>>::_List_impl" = type { %"struct.std::__detail::_List_node_header" }
%"class.std::vector.24" = type { %"struct.std::_Vector_base.25" }
%"struct.std::_Vector_base.25" = type { %"struct.std::_Vector_base<int, std::allocator<int>>::_Vector_impl" }
%"struct.std::_Vector_base<int, std::allocator<int>>::_Vector_impl" = type { %"struct.std::_Vector_base<int, std::allocator<int>>::_Vector_impl_data" }
%"struct.std::_Vector_base<int, std::allocator<int>>::_Vector_impl_data" = type { ptr, ptr, ptr }
%"class.std::vector.29" = type { %"struct.std::_Vector_base.30" }
%"struct.std::_Vector_base.30" = type { %"struct.std::_Vector_base<unsigned long, std::allocator<unsigned long>>::_Vector_impl" }
%"struct.std::_Vector_base<unsigned long, std::allocator<unsigned long>>::_Vector_impl" = type { %"struct.std::_Vector_base<unsigned long, std::allocator<unsigned long>>::_Vector_impl_data" }
%"struct.std::_Vector_base<unsigned long, std::allocator<unsigned long>>::_Vector_impl_data" = type { ptr, ptr, ptr }
%"class.std::vector.34" = type { %"struct.std::_Vector_base.35" }
%"struct.std::_Vector_base.35" = type { %"struct.std::_Vector_base<colvar *, std::allocator<colvar *>>::_Vector_impl" }
%"struct.std::_Vector_base<colvar *, std::allocator<colvar *>>::_Vector_impl" = type { %"struct.std::_Vector_base<colvar *, std::allocator<colvar *>>::_Vector_impl_data" }
%"struct.std::_Vector_base<colvar *, std::allocator<colvar *>>::_Vector_impl_data" = type { ptr, ptr, ptr }
%"class.std::vector.40" = type { %"struct.std::_Vector_base.41" }
%"struct.std::_Vector_base.41" = type { %"struct.std::_Vector_base<colvarvalue, std::allocator<colvarvalue>>::_Vector_impl" }
%"struct.std::_Vector_base<colvarvalue, std::allocator<colvarvalue>>::_Vector_impl" = type { %"struct.std::_Vector_base<colvarvalue, std::allocator<colvarvalue>>::_Vector_impl_data" }
%"struct.std::_Vector_base<colvarvalue, std::allocator<colvarvalue>>::_Vector_impl_data" = type { ptr, ptr, ptr }
%"class.std::vector.39" = type { %"struct.std::_Bvector_base" }
%"struct.std::_Bvector_base" = type { %"struct.std::_Bvector_base<std::allocator<bool>>::_Bvector_impl" }
%"struct.std::_Bvector_base<std::allocator<bool>>::_Bvector_impl" = type { %"struct.std::_Bvector_base<std::allocator<bool>>::_Bvector_impl_data" }
%"struct.std::_Bvector_base<std::allocator<bool>>::_Bvector_impl_data" = type { %"struct.std::_Bit_iterator", %"struct.std::_Bit_iterator", ptr }
%"struct.std::_Bit_iterator" = type { %"struct.std::_Bit_iterator_base.base", [4 x i8] }
%"struct.std::_Bit_iterator_base.base" = type <{ ptr, i32 }>
%"class.std::vector.45" = type { %"struct.std::_Vector_base.46" }
%"struct.std::_Vector_base.46" = type { %"struct.std::_Vector_base<double, std::allocator<double>>::_Vector_impl" }
%"struct.std::_Vector_base<double, std::allocator<double>>::_Vector_impl" = type { %"struct.std::_Vector_base<double, std::allocator<double>>::_Vector_impl_data" }
%"struct.std::_Vector_base<double, std::allocator<double>>::_Vector_impl_data" = type { ptr, ptr, ptr }

; Function Attrs: mustprogress uwtable
define void @_ZN18colvar_grid_scalarC2ERSt6vectorIP6colvarSaIS2_EEb(ptr noundef nonnull align 8 dereferenceable(712) %0, ptr noundef nonnull align 8 dereferenceable(24) %1, i1 noundef zeroext %2) unnamed_addr #3 align 2 {
  %4 = alloca ptr, align 8
  %5 = alloca ptr, align 8
  %6 = alloca i8, align 1
  %7 = alloca double, align 8
  store ptr %0, ptr %4, align 8, !tbaa !4
  store ptr %1, ptr %5, align 8, !tbaa !102
  %8 = zext i1 %2 to i8
  store i8 %8, ptr %6, align 1, !tbaa !85
  %9 = load ptr, ptr %4, align 8
  %10 = load ptr, ptr %5, align 8, !tbaa !102
  call void @llvm.lifetime.start.p0(i64 8, ptr %7) #6
  store double 0.000000e+00, ptr %7, align 8, !tbaa !82
  %11 = load i8, ptr %6, align 1, !tbaa !85, !range !86, !noundef !87
  %12 = trunc i8 %11 to i1
  call void @_ZN11colvar_gridIdEC2ERKSt6vectorIP6colvarSaIS3_EERKdmb(ptr noundef nonnull align 8 dereferenceable(698) %9, ptr noundef nonnull align 8 dereferenceable(24) %10, ptr noundef nonnull align 8 dereferenceable(8) %7, i64 noundef 1, i1 noundef zeroext %12)
  call void @llvm.lifetime.end.p0(i64 8, ptr %7) #6
  store ptr getelementptr inbounds inrange(-16, 80) ({ [12 x ptr] }, ptr @_ZTV18colvar_grid_scalar, i32 0, i32 0, i32 2), ptr %9, align 8, !tbaa !90
  %13 = getelementptr inbounds nuw %class.colvar_grid_scalar, ptr %9, i32 0, i32 1
  store ptr null, ptr %13, align 8, !tbaa !15
  ret void
}