; Function Attrs: mustprogress uwtable
define void @_ZN18colvar_grid_scalarC2ERSt6vectorIP6colvarSaIS2_EEb(ptr noundef nonnull align 8 dereferenceable(712) %0, ptr noundef nonnull align 8 dereferenceable(24) %1, i1 noundef zeroext %2) unnamed_addr #3 align 2 {
  %4 = alloca double, align 8
  call void @llvm.lifetime.start.p0(i64 8, ptr nonnull %4) #26
  store double 0.000000e+00, ptr %4, align 8, !tbaa !90
  call void @_ZN11colvar_gridIdEC2ERKSt6vectorIP6colvarSaIS3_EERKdmb(ptr noundef nonnull align 8 dereferenceable(698) %0, ptr noundef nonnull align 8 dereferenceable(24) %1, ptr noundef nonnull align 8 dereferenceable(8) %4, i64 noundef 1, i1 noundef zeroext %2)
  call void @llvm.lifetime.end.p0(i64 8, ptr nonnull %4) #26
  store ptr getelementptr inbounds nuw inrange(-16, 80) (i8, ptr @_ZTV18colvar_grid_scalar, i64 16), ptr %0, align 8, !tbaa !93
  %5 = getelementptr inbounds nuw i8, ptr %0, i64 704
  store ptr null, ptr %5, align 8, !tbaa !16
  ret void
}